target datalayout = "e-m:e-p270:32:32-p271:32:32-p272:64:64-i64:64-i128:128-f80:128-n8:16:32:64-S128"
target triple = "x86_64-pc-linux-gnu"

%struct.varattrib_1b = type { i8, [0 x i8] }
%struct.anon = type { i32, [0 x i8] }
%struct.inet_struct = type { i8, i8, [16 x i8] }

@.str.1 = private unnamed_addr constant [10 x i8] c"network.c\00", align 1
@.str.11 = private unnamed_addr constant [39 x i8] c"invalid input syntax for type %s: \22%s\22\00", align 1
@.str.12 = private unnamed_addr constant [5 x i8] c"cidr\00", align 1
@.str.13 = private unnamed_addr constant [5 x i8] c"inet\00", align 1
@__func__.network_in = private unnamed_addr constant [11 x i8] c"network_in\00", align 1
@.str.14 = private unnamed_addr constant [25 x i8] c"invalid cidr value: \22%s\22\00", align 1
@.str.15 = private unnamed_addr constant [37 x i8] c"Value has bits set to right of mask.\00", align 1

; Function Attrs: nounwind uwtable
define internal zeroext i1 @addressOK(ptr noundef %0, i32 noundef %1, i32 noundef %2) #0 {
  %4 = alloca i1, align 1
  %5 = alloca ptr, align 8
  %6 = alloca i32, align 4
  %7 = alloca i32, align 4
  %8 = alloca i32, align 4
  %9 = alloca i32, align 4
  %10 = alloca i32, align 4
  %11 = alloca i32, align 4
  %12 = alloca i8, align 1
  %13 = alloca i32, align 4
  store ptr %0, ptr %5, align 8
  store i32 %1, ptr %6, align 4
  store i32 %2, ptr %7, align 4
  call void @llvm.lifetime.start.p0(i64 4, ptr %8) #8
  call void @llvm.lifetime.start.p0(i64 4, ptr %9) #8
  call void @llvm.lifetime.start.p0(i64 4, ptr %10) #8
  call void @llvm.lifetime.start.p0(i64 4, ptr %11) #8
  call void @llvm.lifetime.start.p0(i64 1, ptr %12) #8
  %14 = load i32, ptr %7, align 4
  %15 = icmp eq i32 %14, 2
  br i1 %15, label %16, label %17

16:                                               ; preds = %3
  store i32 32, ptr %10, align 4
  store i32 4, ptr %11, align 4
  br label %18

17:                                               ; preds = %3
  store i32 128, ptr %10, align 4
  store i32 16, ptr %11, align 4
  br label %18

18:                                               ; preds = %17, %16
  %19 = load i32, ptr %6, align 4
  %20 = load i32, ptr %10, align 4
  %21 = icmp eq i32 %19, %20
  br i1 %21, label %22, label %23

22:                                               ; preds = %18
  store i1 true, ptr %4, align 1
  store i32 1, ptr %13, align 4
  br label %57

23:                                               ; preds = %18
  %24 = load i32, ptr %6, align 4
  %25 = sdiv i32 %24, 8
  store i32 %25, ptr %8, align 4
  %26 = load i32, ptr %6, align 4
  %27 = srem i32 %26, 8
  store i32 %27, ptr %9, align 4
  store i8 -1, ptr %12, align 1
  %28 = load i32, ptr %6, align 4
  %29 = icmp ne i32 %28, 0
  br i1 %29, label %30, label %36

30:                                               ; preds = %23
  %31 = load i32, ptr %9, align 4
  %32 = load i8, ptr %12, align 1
  %33 = zext i8 %32 to i32
  %34 = ashr i32 %33, %31
  %35 = trunc i32 %34 to i8
  store i8 %35, ptr %12, align 1
  br label %36

36:                                               ; preds = %30, %23
  br label %37

37:                                               ; preds = %53, %36
  %38 = load i32, ptr %8, align 4
  %39 = load i32, ptr %11, align 4
  %40 = icmp slt i32 %38, %39
  br i1 %40, label %41, label %56

41:                                               ; preds = %37
  %42 = load ptr, ptr %5, align 8
  %43 = load i32, ptr %8, align 4
  %44 = sext i32 %43 to i64
  %45 = getelementptr inbounds i8, ptr %42, i64 %44
  %46 = load i8, ptr %45, align 1
  %47 = zext i8 %46 to i32
  %48 = load i8, ptr %12, align 1
  %49 = zext i8 %48 to i32
  %50 = and i32 %47, %49
  %51 = icmp ne i32 %50, 0
  br i1 %51, label %52, label %53

52:                                               ; preds = %41
  store i1 false, ptr %4, align 1
  store i32 1, ptr %13, align 4
  br label %57

53:                                               ; preds = %41
  store i8 -1, ptr %12, align 1
  %54 = load i32, ptr %8, align 4
  %55 = add i32 %54, 1
  store i32 %55, ptr %8, align 4
  br label %37, !llvm.loop !22

56:                                               ; preds = %37
  store i1 true, ptr %4, align 1
  store i32 1, ptr %13, align 4
  br label %57

57:                                               ; preds = %56, %52, %22
  call void @llvm.lifetime.end.p0(i64 1, ptr %12) #8
  call void @llvm.lifetime.end.p0(i64 4, ptr %11) #8
  call void @llvm.lifetime.end.p0(i64 4, ptr %10) #8
  call void @llvm.lifetime.end.p0(i64 4, ptr %9) #8
  call void @llvm.lifetime.end.p0(i64 4, ptr %8) #8
  %58 = load i1, ptr %4, align 1
  ret i1 %58
}

; Function Attrs: nounwind uwtable
define internal ptr @network_in(ptr noundef %0, i1 noundef zeroext %1, ptr noundef %2) #0 {
  %4 = alloca ptr, align 8
  %5 = alloca ptr, align 8
  %6 = alloca i8, align 1
  %7 = alloca ptr, align 8
  %8 = alloca i32, align 4
  %9 = alloca ptr, align 8
  %10 = alloca ptr, align 8
  %11 = alloca i32, align 4
  %12 = alloca ptr, align 8
  store ptr %0, ptr %5, align 8
  %13 = zext i1 %1 to i8
  store i8 %13, ptr %6, align 1
  store ptr %2, ptr %7, align 8
  call void @llvm.lifetime.start.p0(i64 4, ptr %8) #8
  call void @llvm.lifetime.start.p0(i64 8, ptr %9) #8
  %14 = call ptr @palloc0(i64 noundef 22)
  store ptr %14, ptr %9, align 8
  %15 = load ptr, ptr %5, align 8
  %16 = call ptr @strchr(ptr noundef %15, i32 noundef 58) #9
  %17 = icmp ne ptr %16, null
  br i1 %17, label %18, label %36

18:                                               ; preds = %3
  %19 = load ptr, ptr %9, align 8
  %20 = getelementptr inbounds nuw %struct.varattrib_1b, ptr %19, i32 0, i32 0
  %21 = load i8, ptr %20, align 1
  %22 = zext i8 %21 to i32
  %23 = and i32 %22, 1
  %24 = icmp eq i32 %23, 1
  br i1 %24, label %25, label %29

25:                                               ; preds = %18
  %26 = load ptr, ptr %9, align 8
  %27 = getelementptr inbounds nuw %struct.varattrib_1b, ptr %26, i32 0, i32 1
  %28 = getelementptr inbounds [0 x i8], ptr %27, i64 0, i64 0
  br label %33

29:                                               ; preds = %18
  %30 = load ptr, ptr %9, align 8
  %31 = getelementptr inbounds nuw %struct.anon, ptr %30, i32 0, i32 1
  %32 = getelementptr inbounds [0 x i8], ptr %31, i64 0, i64 0
  br label %33

33:                                               ; preds = %29, %25
  %34 = phi ptr [ %28, %25 ], [ %32, %29 ]
  %35 = getelementptr inbounds nuw %struct.inet_struct, ptr %34, i32 0, i32 0
  store i8 3, ptr %35, align 1
  br label %54

36:                                               ; preds = %3
  %37 = load ptr, ptr %9, align 8
  %38 = getelementptr inbounds nuw %struct.varattrib_1b, ptr %37, i32 0, i32 0
  %39 = load i8, ptr %38, align 1
  %40 = zext i8 %39 to i32
  %41 = and i32 %40, 1
  %42 = icmp eq i32 %41, 1
  br i1 %42, label %43, label %47

43:                                               ; preds = %36
  %44 = load ptr, ptr %9, align 8
  %45 = getelementptr inbounds nuw %struct.varattrib_1b, ptr %44, i32 0, i32 1
  %46 = getelementptr inbounds [0 x i8], ptr %45, i64 0, i64 0
  br label %51

47:                                               ; preds = %36
  %48 = load ptr, ptr %9, align 8
  %49 = getelementptr inbounds nuw %struct.anon, ptr %48, i32 0, i32 1
  %50 = getelementptr inbounds [0 x i8], ptr %49, i64 0, i64 0
  br label %51

51:                                               ; preds = %47, %43
  %52 = phi ptr [ %46, %43 ], [ %50, %47 ]
  %53 = getelementptr inbounds nuw %struct.inet_struct, ptr %52, i32 0, i32 0
  store i8 2, ptr %53, align 1
  br label %54

54:                                               ; preds = %51, %33
  %55 = load ptr, ptr %9, align 8
  %56 = getelementptr inbounds nuw %struct.varattrib_1b, ptr %55, i32 0, i32 0
  %57 = load i8, ptr %56, align 1
  %58 = zext i8 %57 to i32
  %59 = and i32 %58, 1
  %60 = icmp eq i32 %59, 1
  br i1 %60, label %61, label %65

61:                                               ; preds = %54
  %62 = load ptr, ptr %9, align 8
  %63 = getelementptr inbounds nuw %struct.varattrib_1b, ptr %62, i32 0, i32 1
  %64 = getelementptr inbounds [0 x i8], ptr %63, i64 0, i64 0
  br label %69

65:                                               ; preds = %54
  %66 = load ptr, ptr %9, align 8
  %67 = getelementptr inbounds nuw %struct.anon, ptr %66, i32 0, i32 1
  %68 = getelementptr inbounds [0 x i8], ptr %67, i64 0, i64 0
  br label %69

69:                                               ; preds = %65, %61
  %70 = phi ptr [ %64, %61 ], [ %68, %65 ]
  %71 = getelementptr inbounds nuw %struct.inet_struct, ptr %70, i32 0, i32 0
  %72 = load i8, ptr %71, align 1
  %73 = zext i8 %72 to i32
  %74 = load ptr, ptr %5, align 8
  %75 = load ptr, ptr %9, align 8
  %76 = getelementptr inbounds nuw %struct.varattrib_1b, ptr %75, i32 0, i32 0
  %77 = load i8, ptr %76, align 1
  %78 = zext i8 %77 to i32
  %79 = and i32 %78, 1
  %80 = icmp eq i32 %79, 1
  br i1 %80, label %81, label %85

81:                                               ; preds = %69
  %82 = load ptr, ptr %9, align 8
  %83 = getelementptr inbounds nuw %struct.varattrib_1b, ptr %82, i32 0, i32 1
  %84 = getelementptr inbounds [0 x i8], ptr %83, i64 0, i64 0
  br label %89

85:                                               ; preds = %69
  %86 = load ptr, ptr %9, align 8
  %87 = getelementptr inbounds nuw %struct.anon, ptr %86, i32 0, i32 1
  %88 = getelementptr inbounds [0 x i8], ptr %87, i64 0, i64 0
  br label %89

89:                                               ; preds = %85, %81
  %90 = phi ptr [ %84, %81 ], [ %88, %85 ]
  %91 = getelementptr inbounds nuw %struct.inet_struct, ptr %90, i32 0, i32 2
  %92 = getelementptr inbounds [16 x i8], ptr %91, i64 0, i64 0
  %93 = load i8, ptr %6, align 1, !range !4, !noundef !5
  %94 = trunc i8 %93 to i1
  br i1 %94, label %95, label %117

95:                                               ; preds = %89
  %96 = load ptr, ptr %9, align 8
  %97 = getelementptr inbounds nuw %struct.varattrib_1b, ptr %96, i32 0, i32 0
  %98 = load i8, ptr %97, align 1
  %99 = zext i8 %98 to i32
  %100 = and i32 %99, 1
  %101 = icmp eq i32 %100, 1
  br i1 %101, label %102, label %106

102:                                              ; preds = %95
  %103 = load ptr, ptr %9, align 8
  %104 = getelementptr inbounds nuw %struct.varattrib_1b, ptr %103, i32 0, i32 1
  %105 = getelementptr inbounds [0 x i8], ptr %104, i64 0, i64 0
  br label %110

106:                                              ; preds = %95
  %107 = load ptr, ptr %9, align 8
  %108 = getelementptr inbounds nuw %struct.anon, ptr %107, i32 0, i32 1
  %109 = getelementptr inbounds [0 x i8], ptr %108, i64 0, i64 0
  br label %110

110:                                              ; preds = %106, %102
  %111 = phi ptr [ %105, %102 ], [ %109, %106 ]
  %112 = getelementptr inbounds nuw %struct.inet_struct, ptr %111, i32 0, i32 0
  %113 = load i8, ptr %112, align 1
  %114 = zext i8 %113 to i32
  %115 = icmp eq i32 %114, 2
  %116 = select i1 %115, i32 4, i32 16
  br label %118

117:                                              ; preds = %89
  br label %118

118:                                              ; preds = %117, %110
  %119 = phi i32 [ %116, %110 ], [ -1, %117 ]
  %120 = sext i32 %119 to i64
  %121 = call i32 @pg_inet_net_pton(i32 noundef %73, ptr noundef %74, ptr noundef %92, i64 noundef %120)
  store i32 %121, ptr %8, align 4
  %122 = load i32, ptr %8, align 4
  %123 = icmp slt i32 %122, 0
  br i1 %123, label %148, label %124

124:                                              ; preds = %118
  %125 = load i32, ptr %8, align 4
  %126 = load ptr, ptr %9, align 8
  %127 = getelementptr inbounds nuw %struct.varattrib_1b, ptr %126, i32 0, i32 0
  %128 = load i8, ptr %127, align 1
  %129 = zext i8 %128 to i32
  %130 = and i32 %129, 1
  %131 = icmp eq i32 %130, 1
  br i1 %131, label %132, label %136

132:                                              ; preds = %124
  %133 = load ptr, ptr %9, align 8
  %134 = getelementptr inbounds nuw %struct.varattrib_1b, ptr %133, i32 0, i32 1
  %135 = getelementptr inbounds [0 x i8], ptr %134, i64 0, i64 0
  br label %140

136:                                              ; preds = %124
  %137 = load ptr, ptr %9, align 8
  %138 = getelementptr inbounds nuw %struct.anon, ptr %137, i32 0, i32 1
  %139 = getelementptr inbounds [0 x i8], ptr %138, i64 0, i64 0
  br label %140

140:                                              ; preds = %136, %132
  %141 = phi ptr [ %135, %132 ], [ %139, %136 ]
  %142 = getelementptr inbounds nuw %struct.inet_struct, ptr %141, i32 0, i32 0
  %143 = load i8, ptr %142, align 1
  %144 = zext i8 %143 to i32
  %145 = icmp eq i32 %144, 2
  %146 = select i1 %145, i32 32, i32 128
  %147 = icmp sgt i32 %125, %146
  br i1 %147, label %148, label %167

148:                                              ; preds = %140, %118
  br label %149

149:                                              ; preds = %148
  br label %150

150:                                              ; preds = %149
  call void @llvm.lifetime.start.p0(i64 8, ptr %10) #8
  %151 = load ptr, ptr %7, align 8
  store ptr %151, ptr %10, align 8
  %152 = load ptr, ptr %10, align 8
  %153 = call zeroext i1 @errsave_start(ptr noundef %152, ptr noundef null)
  br i1 %153, label %154, label %162

154:                                              ; preds = %150
  %155 = call i32 @errcode(i32 noundef 33685634)
  %156 = load i8, ptr %6, align 1, !range !4, !noundef !5
  %157 = trunc i8 %156 to i1
  %158 = select i1 %157, ptr @.str.12, ptr @.str.13
  %159 = load ptr, ptr %5, align 8
  %160 = call i32 (ptr, ...) @errmsg(ptr noundef @.str.11, ptr noundef %158, ptr noundef %159)
  %161 = load ptr, ptr %10, align 8
  call void @errsave_finish(ptr noundef %161, ptr noundef @.str.1, i32 noundef 100, ptr noundef @__func__.network_in)
  br label %162

162:                                              ; preds = %154, %150
  call void @llvm.lifetime.end.p0(i64 8, ptr %10) #8
  br label %163

163:                                              ; preds = %162
  br label %164

164:                                              ; preds = %163
  store ptr null, ptr %4, align 8
  store i32 1, ptr %11, align 4
  br label %276

165:                                              ; No predecessors!
  br label %166

166:                                              ; preds = %165
  br label %167

167:                                              ; preds = %166, %140
  %168 = load i8, ptr %6, align 1, !range !4, !noundef !5
  %169 = trunc i8 %168 to i1
  br i1 %169, label %170, label %228

170:                                              ; preds = %167
  %171 = load ptr, ptr %9, align 8
  %172 = getelementptr inbounds nuw %struct.varattrib_1b, ptr %171, i32 0, i32 0
  %173 = load i8, ptr %172, align 1
  %174 = zext i8 %173 to i32
  %175 = and i32 %174, 1
  %176 = icmp eq i32 %175, 1
  br i1 %176, label %177, label %181

177:                                              ; preds = %170
  %178 = load ptr, ptr %9, align 8
  %179 = getelementptr inbounds nuw %struct.varattrib_1b, ptr %178, i32 0, i32 1
  %180 = getelementptr inbounds [0 x i8], ptr %179, i64 0, i64 0
  br label %185

181:                                              ; preds = %170
  %182 = load ptr, ptr %9, align 8
  %183 = getelementptr inbounds nuw %struct.anon, ptr %182, i32 0, i32 1
  %184 = getelementptr inbounds [0 x i8], ptr %183, i64 0, i64 0
  br label %185

185:                                              ; preds = %181, %177
  %186 = phi ptr [ %180, %177 ], [ %184, %181 ]
  %187 = getelementptr inbounds nuw %struct.inet_struct, ptr %186, i32 0, i32 2
  %188 = getelementptr inbounds [16 x i8], ptr %187, i64 0, i64 0
  %189 = load i32, ptr %8, align 4
  %190 = load ptr, ptr %9, align 8
  %191 = getelementptr inbounds nuw %struct.varattrib_1b, ptr %190, i32 0, i32 0
  %192 = load i8, ptr %191, align 1
  %193 = zext i8 %192 to i32
  %194 = and i32 %193, 1
  %195 = icmp eq i32 %194, 1
  br i1 %195, label %196, label %200

196:                                              ; preds = %185
  %197 = load ptr, ptr %9, align 8
  %198 = getelementptr inbounds nuw %struct.varattrib_1b, ptr %197, i32 0, i32 1
  %199 = getelementptr inbounds [0 x i8], ptr %198, i64 0, i64 0
  br label %204

200:                                              ; preds = %185
  %201 = load ptr, ptr %9, align 8
  %202 = getelementptr inbounds nuw %struct.anon, ptr %201, i32 0, i32 1
  %203 = getelementptr inbounds [0 x i8], ptr %202, i64 0, i64 0
  br label %204

204:                                              ; preds = %200, %196
  %205 = phi ptr [ %199, %196 ], [ %203, %200 ]
  %206 = getelementptr inbounds nuw %struct.inet_struct, ptr %205, i32 0, i32 0
  %207 = load i8, ptr %206, align 1
  %208 = zext i8 %207 to i32
  %209 = call zeroext i1 @addressOK(ptr noundef %188, i32 noundef %189, i32 noundef %208)
  br i1 %209, label %227, label %210

210:                                              ; preds = %204
  br label %211

211:                                              ; preds = %210
  br label %212

212:                                              ; preds = %211
  call void @llvm.lifetime.start.p0(i64 8, ptr %12) #8
  %213 = load ptr, ptr %7, align 8
  store ptr %213, ptr %12, align 8
  %214 = load ptr, ptr %12, align 8
  %215 = call zeroext i1 @errsave_start(ptr noundef %214, ptr noundef null)
  br i1 %215, label %216, label %222

216:                                              ; preds = %212
  %217 = call i32 @errcode(i32 noundef 33685634)
  %218 = load ptr, ptr %5, align 8
  %219 = call i32 (ptr, ...) @errmsg(ptr noundef @.str.14, ptr noundef %218)
  %220 = call i32 (ptr, ...) @errdetail(ptr noundef @.str.15)
  %221 = load ptr, ptr %12, align 8
  call void @errsave_finish(ptr noundef %221, ptr noundef @.str.1, i32 noundef 111, ptr noundef @__func__.network_in)
  br label %222

222:                                              ; preds = %216, %212
  call void @llvm.lifetime.end.p0(i64 8, ptr %12) #8
  br label %223

223:                                              ; preds = %222
  br label %224

224:                                              ; preds = %223
  store ptr null, ptr %4, align 8
  store i32 1, ptr %11, align 4
  br label %276

225:                                              ; No predecessors!
  br label %226

226:                                              ; preds = %225
  br label %227

227:                                              ; preds = %226, %204
  br label %228

228:                                              ; preds = %227, %167
  %229 = load i32, ptr %8, align 4
  %230 = trunc i32 %229 to i8
  %231 = load ptr, ptr %9, align 8
  %232 = getelementptr inbounds nuw %struct.varattrib_1b, ptr %231, i32 0, i32 0
  %233 = load i8, ptr %232, align 1
  %234 = zext i8 %233 to i32
  %235 = and i32 %234, 1
  %236 = icmp eq i32 %235, 1
  br i1 %236, label %237, label %241

237:                                              ; preds = %228
  %238 = load ptr, ptr %9, align 8
  %239 = getelementptr inbounds nuw %struct.varattrib_1b, ptr %238, i32 0, i32 1
  %240 = getelementptr inbounds [0 x i8], ptr %239, i64 0, i64 0
  br label %245

241:                                              ; preds = %228
  %242 = load ptr, ptr %9, align 8
  %243 = getelementptr inbounds nuw %struct.anon, ptr %242, i32 0, i32 1
  %244 = getelementptr inbounds [0 x i8], ptr %243, i64 0, i64 0
  br label %245

245:                                              ; preds = %241, %237
  %246 = phi ptr [ %240, %237 ], [ %244, %241 ]
  %247 = getelementptr inbounds nuw %struct.inet_struct, ptr %246, i32 0, i32 1
  store i8 %230, ptr %247, align 1
  %248 = load ptr, ptr %9, align 8
  %249 = getelementptr inbounds nuw %struct.varattrib_1b, ptr %248, i32 0, i32 0
  %250 = load i8, ptr %249, align 1
  %251 = zext i8 %250 to i32
  %252 = and i32 %251, 1
  %253 = icmp eq i32 %252, 1
  br i1 %253, label %254, label %258

254:                                              ; preds = %245
  %255 = load ptr, ptr %9, align 8
  %256 = getelementptr inbounds nuw %struct.varattrib_1b, ptr %255, i32 0, i32 1
  %257 = getelementptr inbounds [0 x i8], ptr %256, i64 0, i64 0
  br label %262

258:                                              ; preds = %245
  %259 = load ptr, ptr %9, align 8
  %260 = getelementptr inbounds nuw %struct.anon, ptr %259, i32 0, i32 1
  %261 = getelementptr inbounds [0 x i8], ptr %260, i64 0, i64 0
  br label %262

262:                                              ; preds = %258, %254
  %263 = phi ptr [ %257, %254 ], [ %261, %258 ]
  %264 = getelementptr inbounds nuw %struct.inet_struct, ptr %263, i32 0, i32 0
  %265 = load i8, ptr %264, align 1
  %266 = zext i8 %265 to i32
  %267 = icmp eq i32 %266, 2
  %268 = select i1 %267, i32 4, i32 16
  %269 = sext i32 %268 to i64
  %270 = add i64 6, %269
  %271 = trunc i64 %270 to i32
  %272 = shl i32 %271, 2
  %273 = load ptr, ptr %9, align 8
  %274 = getelementptr inbounds nuw %struct.anon, ptr %273, i32 0, i32 0
  store i32 %272, ptr %274, align 4
  %275 = load ptr, ptr %9, align 8
  store ptr %275, ptr %4, align 8
  store i32 1, ptr %11, align 4
  br label %276

276:                                              ; preds = %262, %224, %164
  call void @llvm.lifetime.end.p0(i64 8, ptr %9) #8
  call void @llvm.lifetime.end.p0(i64 4, ptr %8) #8
  %277 = load ptr, ptr %4, align 8
  ret ptr %277
}