; Function Attrs: nounwind uwtable
define internal fastcc noundef ptr @network_in(ptr noundef %0, i1 noundef zeroext %1, ptr noundef %2) unnamed_addr #0 {
  %4 = tail call ptr @palloc0(i64 noundef 22) #14
  %5 = tail call ptr @strchr(ptr noundef nonnull dereferenceable(1) %0, i32 noundef 58) #15
  %.not = icmp eq ptr %5, null
  %6 = load i8, ptr %4, align 1
  %7 = and i8 %6, 1
  %.not50 = icmp eq i8 %7, 0
  %.v = select i1 %.not50, i64 4, i64 1
  %8 = getelementptr inbounds nuw i8, ptr %4, i64 %.v
  %. = select i1 %.not, i8 2, i8 3
  store i8 %., ptr %8, align 1
  %.not53 = icmp eq i8 %7, 0
  %9 = getelementptr inbounds nuw i8, ptr %4, i64 1
  %10 = getelementptr inbounds nuw i8, ptr %4, i64 4
  %11 = select i1 %.not53, ptr %10, ptr %9
  %12 = load i8, ptr %11, align 1
  %13 = zext i8 %12 to i32
  %14 = getelementptr inbounds nuw i8, ptr %11, i64 2
  %15 = icmp eq i8 %12, 2
  %16 = select i1 %15, i64 4, i64 16
  %17 = select i1 %1, i64 %16, i64 -1
  %18 = tail call i32 @pg_inet_net_pton(i32 noundef %13, ptr noundef nonnull %0, ptr noundef nonnull %14, i64 noundef %17) #14
  %19 = icmp slt i32 %18, 0
  br i1 %19, label %28, label %20

20:                                               ; preds = %3
  %21 = load i8, ptr %4, align 1
  %22 = and i8 %21, 1
  %.not54 = icmp eq i8 %22, 0
  %23 = select i1 %.not54, ptr %10, ptr %9
  %24 = load i8, ptr %23, align 1
  %25 = icmp eq i8 %24, 2
  %26 = select i1 %25, i32 32, i32 128
  %27 = icmp samesign ugt i32 %18, %26
  br i1 %27, label %28, label %34

28:                                               ; preds = %20, %3
  %29 = tail call zeroext i1 @errsave_start(ptr noundef %2, ptr noundef null) #14
  br i1 %29, label %30, label %62

30:                                               ; preds = %28
  %31 = tail call i32 @errcode(i32 noundef 33685634) #14
  %32 = select i1 %1, ptr @.str.12, ptr @.str.13
  %33 = tail call i32 (ptr, ...) @errmsg(ptr noundef nonnull @.str.11, ptr noundef nonnull %32, ptr noundef nonnull %0) #14
  tail call void @errsave_finish(ptr noundef %2, ptr noundef nonnull @.str.1, i32 noundef 100, ptr noundef nonnull @__func__.network_in) #14
  br label %62

34:                                               ; preds = %20
  br i1 %1, label %35, label %addressOK.exit.thread

35:                                               ; preds = %34
  %36 = getelementptr inbounds nuw i8, ptr %23, i64 2
  %.20.i = select i1 %25, i32 4, i32 16
  %37 = icmp eq i32 %18, %26
  br i1 %37, label %addressOK.exit.thread, label %38

38:                                               ; preds = %35
  %39 = lshr i32 %18, 3
  %40 = icmp samesign ult i32 %39, %.20.i
  br i1 %40, label %.lr.ph.preheader.i, label %addressOK.exit.thread

.lr.ph.preheader.i:                               ; preds = %38
  %41 = and i32 %18, 7
  %42 = lshr i32 255, %41
  %43 = zext nneg i32 %39 to i64
  %wide.trip.count.i = zext nneg i32 %.20.i to i64
  br label %.lr.ph.i

44:                                               ; preds = %.lr.ph.i
  %indvars.iv.next.i = add nuw nsw i64 %indvars.iv.i, 1
  %exitcond.not.i = icmp eq i64 %indvars.iv.next.i, %wide.trip.count.i
  br i1 %exitcond.not.i, label %addressOK.exit.thread, label %.lr.ph.i, !llvm.loop !4

.lr.ph.i:                                         ; preds = %44, %.lr.ph.preheader.i
  %indvars.iv.i = phi i64 [ %43, %.lr.ph.preheader.i ], [ %indvars.iv.next.i, %44 ]
  %.122.i = phi i32 [ %42, %.lr.ph.preheader.i ], [ 255, %44 ]
  %45 = getelementptr inbounds nuw i8, ptr %36, i64 %indvars.iv.i
  %46 = load i8, ptr %45, align 1
  %47 = zext i8 %46 to i32
  %48 = and i32 %.122.i, %47
  %.not19.i = icmp eq i32 %48, 0
  br i1 %.not19.i, label %44, label %addressOK.exit

addressOK.exit:                                   ; preds = %.lr.ph.i
  %49 = tail call zeroext i1 @errsave_start(ptr noundef %2, ptr noundef null) #14
  br i1 %49, label %50, label %62

50:                                               ; preds = %addressOK.exit
  %51 = tail call i32 @errcode(i32 noundef 33685634) #14
  %52 = tail call i32 (ptr, ...) @errmsg(ptr noundef nonnull @.str.14, ptr noundef nonnull %0) #14
  %53 = tail call i32 (ptr, ...) @errdetail(ptr noundef nonnull @.str.15) #14
  tail call void @errsave_finish(ptr noundef %2, ptr noundef nonnull @.str.1, i32 noundef 111, ptr noundef nonnull @__func__.network_in) #14
  br label %62

addressOK.exit.thread:                            ; preds = %44, %38, %35, %34
  %54 = trunc nuw i32 %18 to i8
  %55 = getelementptr inbounds nuw i8, ptr %23, i64 1
  store i8 %54, ptr %55, align 1
  %56 = load i8, ptr %4, align 1
  %57 = and i8 %56, 1
  %.not56 = icmp eq i8 %57, 0
  %58 = select i1 %.not56, ptr %10, ptr %9
  %59 = load i8, ptr %58, align 1
  %60 = icmp eq i8 %59, 2
  %61 = select i1 %60, i32 40, i32 88
  store i32 %61, ptr %4, align 4
  br label %62

62:                                               ; preds = %addressOK.exit, %50, %28, %30, %addressOK.exit.thread
  %.0 = phi ptr [ %4, %addressOK.exit.thread ], [ null, %30 ], [ null, %28 ], [ null, %50 ], [ null, %addressOK.exit ]
  ret ptr %.0
}